target datalayout = "e-m:e-p270:32:32-p271:32:32-p272:64:64-i64:64-i128:128-f80:128-n8:16:32:64-S128"
target triple = "x86_64-pc-linux-gnu"

%struct._lv_global_t = type { i8, i8, %struct.lv_ll_t, ptr, ptr, %struct.lv_ll_t, i8, i32, i32, ptr, %struct.lv_ll_t, ptr, %struct.lv_ll_t, ptr, ptr, i32, ptr, i8, i32, i32, ptr, i32, %struct.lv_timer_state_t, %struct.lv_anim_state_t, %struct.lv_tick_state_t, %struct._lv_draw_buf_handlers_t, %struct._lv_draw_buf_handlers_t, %struct._lv_draw_buf_handlers_t, %struct.lv_ll_t, ptr, ptr, %struct.lv_draw_global_info_t, [4 x %struct.lv_draw_sw_mask_radius_circle_dsc_t], ptr, ptr, ptr, %struct.lv_tlsf_state_t, %struct.lv_ll_t, ptr, ptr, %struct.lv_style_t, i64, ptr, i32, ptr }
%struct.lv_timer_state_t = type { %struct.lv_ll_t, i8, i8, i8, i8, i32, i8, i32, i32, i32, i32, ptr, ptr }
%struct.lv_anim_state_t = type { i8, i8, ptr, %struct.lv_ll_t }
%struct.lv_tick_state_t = type { i32, i8, ptr, ptr }
%struct._lv_draw_buf_handlers_t = type { ptr, ptr, ptr, ptr, ptr, ptr }
%struct.lv_draw_global_info_t = type { ptr, i32, i32, i32, i32, i8 }
%struct.lv_draw_sw_mask_radius_circle_dsc_t = type { ptr, ptr, ptr, ptr, i32, i32, i32 }
%struct.lv_tlsf_state_t = type { ptr, i64, i64, %struct.lv_ll_t }
%struct.lv_ll_t = type { i32, ptr, ptr }
%struct.lv_style_t = type { ptr, i32, i8 }
%struct._lv_display_t = type { i32, i32, i32, i32, i32, i32, i32, ptr, ptr, ptr, ptr, ptr, i32, i32, i8, i32, i16, i32, [32 x %struct.lv_area_t], [32 x i8], i32, i32, %struct.lv_ll_t, %struct._lv_draw_buf_t, %struct._lv_draw_buf_t, ptr, ptr, ptr, ptr, ptr, ptr, ptr, ptr, ptr, ptr, i32, i8, ptr, ptr, %struct.lv_event_list_t, i8, ptr, ptr, i32, %struct.lv_area_t }
%struct._lv_draw_buf_t = type { %struct.lv_image_header_t, i32, ptr, ptr, ptr }
%struct.lv_image_header_t = type <{ i64, i32 }>
%struct.lv_event_list_t = type { %struct._lv_array_t, i8 }
%struct._lv_array_t = type { ptr, i32, i32, i32, i8 }
%struct.lv_area_t = type { i32, i32, i32, i32 }
%struct._lv_event_t = type { ptr, ptr, i32, ptr, ptr, ptr, i8 }
%struct._lv_obj_t = type { ptr, ptr, ptr, ptr, ptr, %struct.lv_area_t, i32, i16, i16 }

@lv_global = external global %struct._lv_global_t, align 8

; Function Attrs: nounwind uwtable
define ptr @lv_display_get_default() #0 {
  %1 = load ptr, ptr getelementptr inbounds nuw (%struct._lv_global_t, ptr @lv_global, i32 0, i32 4), align 8, !tbaa !35
  ret ptr %1
}

; Function Attrs: nounwind uwtable
define i32 @lv_display_send_event(ptr noundef %0, i32 noundef %1, ptr noundef %2) #0 {
  %4 = alloca i32, align 4
  %5 = alloca ptr, align 8
  %6 = alloca i32, align 4
  %7 = alloca ptr, align 8
  %8 = alloca %struct._lv_event_t, align 8
  %9 = alloca i32, align 4
  %10 = alloca i32, align 4
  store ptr %0, ptr %5, align 8, !tbaa !7
  store i32 %1, ptr %6, align 4, !tbaa !3
  store ptr %2, ptr %7, align 8, !tbaa !7
  call void @llvm.lifetime.start.p0(i64 56, ptr %8) #5
  call void @lv_memzero(ptr noundef %8, i64 noundef 56)
  %11 = load i32, ptr %6, align 4, !tbaa !3
  %12 = getelementptr inbounds nuw %struct._lv_event_t, ptr %8, i32 0, i32 2
  store i32 %11, ptr %12, align 8, !tbaa !61
  %13 = load ptr, ptr %5, align 8, !tbaa !7
  %14 = getelementptr inbounds nuw %struct._lv_event_t, ptr %8, i32 0, i32 0
  store ptr %13, ptr %14, align 8, !tbaa !63
  %15 = load ptr, ptr %5, align 8, !tbaa !7
  %16 = getelementptr inbounds nuw %struct._lv_event_t, ptr %8, i32 0, i32 1
  store ptr %15, ptr %16, align 8, !tbaa !64
  %17 = load ptr, ptr %7, align 8, !tbaa !7
  %18 = getelementptr inbounds nuw %struct._lv_event_t, ptr %8, i32 0, i32 4
  store ptr %17, ptr %18, align 8, !tbaa !65
  call void @llvm.lifetime.start.p0(i64 4, ptr %9) #5
  %19 = load ptr, ptr %5, align 8, !tbaa !7
  %20 = getelementptr inbounds nuw %struct._lv_display_t, ptr %19, i32 0, i32 39
  %21 = call i32 @lv_event_send(ptr noundef %20, ptr noundef %8, i1 noundef zeroext true)
  store i32 %21, ptr %9, align 4, !tbaa !3
  %22 = load i32, ptr %9, align 4, !tbaa !3
  %23 = icmp ne i32 %22, 1
  br i1 %23, label %24, label %26

24:                                               ; preds = %3
  %25 = load i32, ptr %9, align 4, !tbaa !3
  store i32 %25, ptr %4, align 4
  store i32 1, ptr %10, align 4
  br label %36

26:                                               ; preds = %3
  %27 = load ptr, ptr %5, align 8, !tbaa !7
  %28 = getelementptr inbounds nuw %struct._lv_display_t, ptr %27, i32 0, i32 39
  %29 = call i32 @lv_event_send(ptr noundef %28, ptr noundef %8, i1 noundef zeroext false)
  store i32 %29, ptr %9, align 4, !tbaa !3
  %30 = load i32, ptr %9, align 4, !tbaa !3
  %31 = icmp ne i32 %30, 1
  br i1 %31, label %32, label %34

32:                                               ; preds = %26
  %33 = load i32, ptr %9, align 4, !tbaa !3
  store i32 %33, ptr %4, align 4
  store i32 1, ptr %10, align 4
  br label %36

34:                                               ; preds = %26
  %35 = load i32, ptr %9, align 4, !tbaa !3
  store i32 %35, ptr %4, align 4
  store i32 1, ptr %10, align 4
  br label %36

36:                                               ; preds = %34, %32, %24
  call void @llvm.lifetime.end.p0(i64 4, ptr %9) #5
  call void @llvm.lifetime.end.p0(i64 56, ptr %8) #5
  %37 = load i32, ptr %4, align 4
  ret i32 %37
}

; Function Attrs: inlinehint nounwind uwtable
define internal void @lv_memzero(ptr noundef %0, i64 noundef %1) #3 {
  %3 = alloca ptr, align 8
  %4 = alloca i64, align 8
  store ptr %0, ptr %3, align 8, !tbaa !7
  store i64 %1, ptr %4, align 8, !tbaa !51
  %5 = load ptr, ptr %3, align 8, !tbaa !7
  %6 = load i64, ptr %4, align 8, !tbaa !51
  call void @lv_memset(ptr noundef %5, i8 noundef zeroext 0, i64 noundef %6)
  ret void
}

; Function Attrs: nounwind uwtable
define i32 @lv_display_get_vertical_resolution(ptr noundef %0) #0 {
  %2 = alloca i32, align 4
  %3 = alloca ptr, align 8
  store ptr %0, ptr %3, align 8, !tbaa !7
  %4 = load ptr, ptr %3, align 8, !tbaa !7
  %5 = icmp eq ptr %4, null
  br i1 %5, label %6, label %8

6:                                                ; preds = %1
  %7 = call ptr @lv_display_get_default()
  store ptr %7, ptr %3, align 8, !tbaa !7
  br label %8

8:                                                ; preds = %6, %1
  %9 = load ptr, ptr %3, align 8, !tbaa !7
  %10 = icmp eq ptr %9, null
  br i1 %10, label %11, label %12

11:                                               ; preds = %8
  store i32 0, ptr %2, align 4
  br label %26

12:                                               ; preds = %8
  %13 = load ptr, ptr %3, align 8, !tbaa !7
  %14 = getelementptr inbounds nuw %struct._lv_display_t, ptr %13, i32 0, i32 40
  %15 = load i8, ptr %14, align 8
  %16 = and i8 %15, 7
  %17 = zext i8 %16 to i32
  switch i32 %17, label %22 [
    i32 1, label %18
    i32 3, label %18
  ]

18:                                               ; preds = %12, %12
  %19 = load ptr, ptr %3, align 8, !tbaa !7
  %20 = getelementptr inbounds nuw %struct._lv_display_t, ptr %19, i32 0, i32 0
  %21 = load i32, ptr %20, align 8, !tbaa !9
  store i32 %21, ptr %2, align 4
  br label %26

22:                                               ; preds = %12
  %23 = load ptr, ptr %3, align 8, !tbaa !7
  %24 = getelementptr inbounds nuw %struct._lv_display_t, ptr %23, i32 0, i32 1
  %25 = load i32, ptr %24, align 4, !tbaa !18
  store i32 %25, ptr %2, align 4
  br label %26

26:                                               ; preds = %22, %18, %11
  %27 = load i32, ptr %2, align 4
  ret i32 %27
}

; Function Attrs: nounwind uwtable
define i32 @lv_display_get_horizontal_resolution(ptr noundef %0) #0 {
  %2 = alloca i32, align 4
  %3 = alloca ptr, align 8
  store ptr %0, ptr %3, align 8, !tbaa !7
  %4 = load ptr, ptr %3, align 8, !tbaa !7
  %5 = icmp eq ptr %4, null
  br i1 %5, label %6, label %8

6:                                                ; preds = %1
  %7 = call ptr @lv_display_get_default()
  store ptr %7, ptr %3, align 8, !tbaa !7
  br label %8

8:                                                ; preds = %6, %1
  %9 = load ptr, ptr %3, align 8, !tbaa !7
  %10 = icmp eq ptr %9, null
  br i1 %10, label %11, label %12

11:                                               ; preds = %8
  store i32 0, ptr %2, align 4
  br label %26

12:                                               ; preds = %8
  %13 = load ptr, ptr %3, align 8, !tbaa !7
  %14 = getelementptr inbounds nuw %struct._lv_display_t, ptr %13, i32 0, i32 40
  %15 = load i8, ptr %14, align 8
  %16 = and i8 %15, 7
  %17 = zext i8 %16 to i32
  switch i32 %17, label %22 [
    i32 1, label %18
    i32 3, label %18
  ]

18:                                               ; preds = %12, %12
  %19 = load ptr, ptr %3, align 8, !tbaa !7
  %20 = getelementptr inbounds nuw %struct._lv_display_t, ptr %19, i32 0, i32 1
  %21 = load i32, ptr %20, align 4, !tbaa !18
  store i32 %21, ptr %2, align 4
  br label %26

22:                                               ; preds = %12
  %23 = load ptr, ptr %3, align 8, !tbaa !7
  %24 = getelementptr inbounds nuw %struct._lv_display_t, ptr %23, i32 0, i32 0
  %25 = load i32, ptr %24, align 8, !tbaa !9
  store i32 %25, ptr %2, align 4
  br label %26

26:                                               ; preds = %22, %18, %11
  %27 = load i32, ptr %2, align 4
  ret i32 %27
}

; Function Attrs: nounwind uwtable
define internal void @update_resolution(ptr noundef %0) #0 {
  %2 = alloca ptr, align 8
  %3 = alloca i32, align 4
  %4 = alloca i32, align 4
  %5 = alloca %struct.lv_area_t, align 4
  %6 = alloca i32, align 4
  store ptr %0, ptr %2, align 8, !tbaa !7
  call void @llvm.lifetime.start.p0(i64 4, ptr %3) #5
  %7 = load ptr, ptr %2, align 8, !tbaa !7
  %8 = call i32 @lv_display_get_horizontal_resolution(ptr noundef %7)
  store i32 %8, ptr %3, align 4, !tbaa !3
  call void @llvm.lifetime.start.p0(i64 4, ptr %4) #5
  %9 = load ptr, ptr %2, align 8, !tbaa !7
  %10 = call i32 @lv_display_get_vertical_resolution(ptr noundef %9)
  store i32 %10, ptr %4, align 4, !tbaa !3
  call void @llvm.lifetime.start.p0(i64 16, ptr %5) #5
  %11 = load ptr, ptr %2, align 8, !tbaa !7
  %12 = getelementptr inbounds nuw %struct._lv_display_t, ptr %11, i32 0, i32 29
  %13 = load ptr, ptr %12, align 8, !tbaa !50
  call void @lv_obj_get_coords(ptr noundef %13, ptr noundef %5)
  call void @llvm.lifetime.start.p0(i64 4, ptr %6) #5
  store i32 0, ptr %6, align 4, !tbaa !3
  br label %14

14:                                               ; preds = %47, %1
  %15 = load i32, ptr %6, align 4, !tbaa !3
  %16 = load ptr, ptr %2, align 8, !tbaa !7
  %17 = getelementptr inbounds nuw %struct._lv_display_t, ptr %16, i32 0, i32 35
  %18 = load i32, ptr %17, align 8, !tbaa !55
  %19 = icmp ult i32 %15, %18
  br i1 %19, label %20, label %50

20:                                               ; preds = %14
  %21 = load ptr, ptr %2, align 8, !tbaa !7
  %22 = getelementptr inbounds nuw %struct._lv_display_t, ptr %21, i32 0, i32 28
  %23 = load ptr, ptr %22, align 8, !tbaa !56
  %24 = load i32, ptr %6, align 4, !tbaa !3
  %25 = zext i32 %24 to i64
  %26 = getelementptr inbounds nuw ptr, ptr %23, i64 %25
  %27 = load ptr, ptr %26, align 8, !tbaa !7
  %28 = getelementptr inbounds nuw %struct._lv_obj_t, ptr %27, i32 0, i32 5
  %29 = load i32, ptr %3, align 4, !tbaa !3
  call void @lv_area_set_width(ptr noundef %28, i32 noundef %29)
  %30 = load ptr, ptr %2, align 8, !tbaa !7
  %31 = getelementptr inbounds nuw %struct._lv_display_t, ptr %30, i32 0, i32 28
  %32 = load ptr, ptr %31, align 8, !tbaa !56
  %33 = load i32, ptr %6, align 4, !tbaa !3
  %34 = zext i32 %33 to i64
  %35 = getelementptr inbounds nuw ptr, ptr %32, i64 %34
  %36 = load ptr, ptr %35, align 8, !tbaa !7
  %37 = getelementptr inbounds nuw %struct._lv_obj_t, ptr %36, i32 0, i32 5
  %38 = load i32, ptr %4, align 4, !tbaa !3
  call void @lv_area_set_height(ptr noundef %37, i32 noundef %38)
  %39 = load ptr, ptr %2, align 8, !tbaa !7
  %40 = getelementptr inbounds nuw %struct._lv_display_t, ptr %39, i32 0, i32 28
  %41 = load ptr, ptr %40, align 8, !tbaa !56
  %42 = load i32, ptr %6, align 4, !tbaa !3
  %43 = zext i32 %42 to i64
  %44 = getelementptr inbounds nuw ptr, ptr %41, i64 %43
  %45 = load ptr, ptr %44, align 8, !tbaa !7
  %46 = call i32 @lv_obj_send_event(ptr noundef %45, i32 noundef 49, ptr noundef %5)
  br label %47

47:                                               ; preds = %20
  %48 = load i32, ptr %6, align 4, !tbaa !3
  %49 = add i32 %48, 1
  store i32 %49, ptr %6, align 4, !tbaa !3
  br label %14, !llvm.loop !66

50:                                               ; preds = %14
  %51 = load ptr, ptr %2, align 8, !tbaa !7
  %52 = getelementptr inbounds nuw %struct._lv_display_t, ptr %51, i32 0, i32 30
  %53 = load ptr, ptr %52, align 8, !tbaa !49
  %54 = getelementptr inbounds nuw %struct._lv_obj_t, ptr %53, i32 0, i32 5
  %55 = load i32, ptr %3, align 4, !tbaa !3
  call void @lv_area_set_width(ptr noundef %54, i32 noundef %55)
  %56 = load ptr, ptr %2, align 8, !tbaa !7
  %57 = getelementptr inbounds nuw %struct._lv_display_t, ptr %56, i32 0, i32 30
  %58 = load ptr, ptr %57, align 8, !tbaa !49
  %59 = getelementptr inbounds nuw %struct._lv_obj_t, ptr %58, i32 0, i32 5
  %60 = load i32, ptr %4, align 4, !tbaa !3
  call void @lv_area_set_height(ptr noundef %59, i32 noundef %60)
  %61 = load ptr, ptr %2, align 8, !tbaa !7
  %62 = getelementptr inbounds nuw %struct._lv_display_t, ptr %61, i32 0, i32 30
  %63 = load ptr, ptr %62, align 8, !tbaa !49
  %64 = call i32 @lv_obj_send_event(ptr noundef %63, i32 noundef 49, ptr noundef %5)
  %65 = load ptr, ptr %2, align 8, !tbaa !7
  %66 = getelementptr inbounds nuw %struct._lv_display_t, ptr %65, i32 0, i32 29
  %67 = load ptr, ptr %66, align 8, !tbaa !50
  %68 = getelementptr inbounds nuw %struct._lv_obj_t, ptr %67, i32 0, i32 5
  %69 = load i32, ptr %3, align 4, !tbaa !3
  call void @lv_area_set_width(ptr noundef %68, i32 noundef %69)
  %70 = load ptr, ptr %2, align 8, !tbaa !7
  %71 = getelementptr inbounds nuw %struct._lv_display_t, ptr %70, i32 0, i32 29
  %72 = load ptr, ptr %71, align 8, !tbaa !50
  %73 = getelementptr inbounds nuw %struct._lv_obj_t, ptr %72, i32 0, i32 5
  %74 = load i32, ptr %4, align 4, !tbaa !3
  call void @lv_area_set_height(ptr noundef %73, i32 noundef %74)
  %75 = load ptr, ptr %2, align 8, !tbaa !7
  %76 = getelementptr inbounds nuw %struct._lv_display_t, ptr %75, i32 0, i32 29
  %77 = load ptr, ptr %76, align 8, !tbaa !50
  %78 = call i32 @lv_obj_send_event(ptr noundef %77, i32 noundef 49, ptr noundef %5)
  %79 = load ptr, ptr %2, align 8, !tbaa !7
  %80 = getelementptr inbounds nuw %struct._lv_display_t, ptr %79, i32 0, i32 32
  %81 = load ptr, ptr %80, align 8, !tbaa !47
  %82 = getelementptr inbounds nuw %struct._lv_obj_t, ptr %81, i32 0, i32 5
  %83 = load i32, ptr %3, align 4, !tbaa !3
  call void @lv_area_set_width(ptr noundef %82, i32 noundef %83)
  %84 = load ptr, ptr %2, align 8, !tbaa !7
  %85 = getelementptr inbounds nuw %struct._lv_display_t, ptr %84, i32 0, i32 32
  %86 = load ptr, ptr %85, align 8, !tbaa !47
  %87 = getelementptr inbounds nuw %struct._lv_obj_t, ptr %86, i32 0, i32 5
  %88 = load i32, ptr %4, align 4, !tbaa !3
  call void @lv_area_set_height(ptr noundef %87, i32 noundef %88)
  %89 = load ptr, ptr %2, align 8, !tbaa !7
  %90 = getelementptr inbounds nuw %struct._lv_display_t, ptr %89, i32 0, i32 32
  %91 = load ptr, ptr %90, align 8, !tbaa !47
  %92 = call i32 @lv_obj_send_event(ptr noundef %91, i32 noundef 49, ptr noundef %5)
  %93 = load ptr, ptr %2, align 8, !tbaa !7
  %94 = getelementptr inbounds nuw %struct._lv_display_t, ptr %93, i32 0, i32 18
  %95 = getelementptr inbounds [32 x %struct.lv_area_t], ptr %94, i64 0, i64 0
  call void @lv_memzero(ptr noundef %95, i64 noundef 512)
  %96 = load ptr, ptr %2, align 8, !tbaa !7
  %97 = getelementptr inbounds nuw %struct._lv_display_t, ptr %96, i32 0, i32 19
  %98 = getelementptr inbounds [32 x i8], ptr %97, i64 0, i64 0
  call void @lv_memzero(ptr noundef %98, i64 noundef 32)
  %99 = load ptr, ptr %2, align 8, !tbaa !7
  %100 = getelementptr inbounds nuw %struct._lv_display_t, ptr %99, i32 0, i32 20
  store i32 0, ptr %100, align 8, !tbaa !67
  %101 = load ptr, ptr %2, align 8, !tbaa !7
  %102 = getelementptr inbounds nuw %struct._lv_display_t, ptr %101, i32 0, i32 29
  %103 = load ptr, ptr %102, align 8, !tbaa !50
  call void @lv_obj_invalidate(ptr noundef %103)
  call void @lv_obj_tree_walk(ptr noundef null, ptr noundef @invalidate_layout_cb, ptr noundef null)
  %104 = load ptr, ptr %2, align 8, !tbaa !7
  %105 = call i32 @lv_display_send_event(ptr noundef %104, i32 noundef 54, ptr noundef null)
  call void @llvm.lifetime.end.p0(i64 4, ptr %6) #5
  call void @llvm.lifetime.end.p0(i64 16, ptr %5) #5
  call void @llvm.lifetime.end.p0(i64 4, ptr %4) #5
  call void @llvm.lifetime.end.p0(i64 4, ptr %3) #5
  ret void
}