; Function Attrs: nounwind uwtable
define internal fastcc void @update_resolution(ptr noundef nonnull %0) unnamed_addr #0 {
  %2 = alloca %struct._lv_event_t, align 8
  %3 = alloca %struct.lv_area_t, align 4
  %4 = getelementptr inbounds nuw i8, ptr %0, i64 888
  %5 = load i8, ptr %4, align 8
  %6 = and i8 %5, 7
  switch i8 %6, label %lv_display_get_horizontal_resolution.exit [
    i8 1, label %7
    i8 3, label %7
  ]

7:                                                ; preds = %1, %1
  %8 = getelementptr inbounds nuw i8, ptr %0, i64 4
  br label %lv_display_get_horizontal_resolution.exit

lv_display_get_horizontal_resolution.exit:        ; preds = %1, %7
  %.05.i.in = phi ptr [ %8, %7 ], [ %0, %1 ]
  %.05.i = load i32, ptr %.05.i.in, align 4, !tbaa !60
  switch i8 %6, label %9 [
    i8 1, label %lv_display_get_vertical_resolution.exit
    i8 3, label %lv_display_get_vertical_resolution.exit
  ]

9:                                                ; preds = %lv_display_get_horizontal_resolution.exit
  %10 = getelementptr inbounds nuw i8, ptr %0, i64 4
  br label %lv_display_get_vertical_resolution.exit

lv_display_get_vertical_resolution.exit:          ; preds = %lv_display_get_horizontal_resolution.exit, %lv_display_get_horizontal_resolution.exit, %9
  %.05.i33.in = phi ptr [ %10, %9 ], [ %0, %lv_display_get_horizontal_resolution.exit ], [ %0, %lv_display_get_horizontal_resolution.exit ]
  %.05.i33 = load i32, ptr %.05.i33.in, align 4, !tbaa !60
  call void @llvm.lifetime.start.p0(i64 16, ptr nonnull %3) #13
  %11 = getelementptr inbounds nuw i8, ptr %0, i64 784
  %12 = load ptr, ptr %11, align 8, !tbaa !47
  call void @lv_obj_get_coords(ptr noundef %12, ptr noundef nonnull %3) #13
  %13 = getelementptr inbounds nuw i8, ptr %0, i64 832
  %14 = load i32, ptr %13, align 8, !tbaa !55
  %.not = icmp eq i32 %14, 0
  br i1 %.not, label %._crit_edge, label %.lr.ph

.lr.ph:                                           ; preds = %lv_display_get_vertical_resolution.exit
  %15 = getelementptr inbounds nuw i8, ptr %0, i64 776
  br label %16

16:                                               ; preds = %.lr.ph, %16
  %indvars.iv = phi i64 [ 0, %.lr.ph ], [ %indvars.iv.next, %16 ]
  %17 = load ptr, ptr %15, align 8, !tbaa !56
  %18 = getelementptr inbounds nuw ptr, ptr %17, i64 %indvars.iv
  %19 = load ptr, ptr %18, align 8, !tbaa !57
  %20 = getelementptr inbounds nuw i8, ptr %19, i64 40
  call void @lv_area_set_width(ptr noundef nonnull %20, i32 noundef %.05.i) #13
  %21 = load ptr, ptr %15, align 8, !tbaa !56
  %22 = getelementptr inbounds nuw ptr, ptr %21, i64 %indvars.iv
  %23 = load ptr, ptr %22, align 8, !tbaa !57
  %24 = getelementptr inbounds nuw i8, ptr %23, i64 40
  call void @lv_area_set_height(ptr noundef nonnull %24, i32 noundef %.05.i33) #13
  %25 = load ptr, ptr %15, align 8, !tbaa !56
  %26 = getelementptr inbounds nuw ptr, ptr %25, i64 %indvars.iv
  %27 = load ptr, ptr %26, align 8, !tbaa !57
  %28 = call i32 @lv_obj_send_event(ptr noundef %27, i32 noundef 49, ptr noundef nonnull %3) #13
  %indvars.iv.next = add nuw nsw i64 %indvars.iv, 1
  %29 = load i32, ptr %13, align 8, !tbaa !55
  %30 = zext i32 %29 to i64
  %31 = icmp samesign ult i64 %indvars.iv.next, %30
  br i1 %31, label %16, label %._crit_edge, !llvm.loop !61

._crit_edge:                                      ; preds = %16, %lv_display_get_vertical_resolution.exit
  %32 = getelementptr inbounds nuw i8, ptr %0, i64 792
  %33 = load ptr, ptr %32, align 8, !tbaa !46
  %34 = getelementptr inbounds nuw i8, ptr %33, i64 40
  call void @lv_area_set_width(ptr noundef nonnull %34, i32 noundef %.05.i) #13
  %35 = load ptr, ptr %32, align 8, !tbaa !46
  %36 = getelementptr inbounds nuw i8, ptr %35, i64 40
  call void @lv_area_set_height(ptr noundef nonnull %36, i32 noundef %.05.i33) #13
  %37 = load ptr, ptr %32, align 8, !tbaa !46
  %38 = call i32 @lv_obj_send_event(ptr noundef %37, i32 noundef 49, ptr noundef nonnull %3) #13
  %39 = load ptr, ptr %11, align 8, !tbaa !47
  %40 = getelementptr inbounds nuw i8, ptr %39, i64 40
  call void @lv_area_set_width(ptr noundef nonnull %40, i32 noundef %.05.i) #13
  %41 = load ptr, ptr %11, align 8, !tbaa !47
  %42 = getelementptr inbounds nuw i8, ptr %41, i64 40
  call void @lv_area_set_height(ptr noundef nonnull %42, i32 noundef %.05.i33) #13
  %43 = load ptr, ptr %11, align 8, !tbaa !47
  %44 = call i32 @lv_obj_send_event(ptr noundef %43, i32 noundef 49, ptr noundef nonnull %3) #13
  %45 = getelementptr inbounds nuw i8, ptr %0, i64 808
  %46 = load ptr, ptr %45, align 8, !tbaa !44
  %47 = getelementptr inbounds nuw i8, ptr %46, i64 40
  call void @lv_area_set_width(ptr noundef nonnull %47, i32 noundef %.05.i) #13
  %48 = load ptr, ptr %45, align 8, !tbaa !44
  %49 = getelementptr inbounds nuw i8, ptr %48, i64 40
  call void @lv_area_set_height(ptr noundef nonnull %49, i32 noundef %.05.i33) #13
  %50 = load ptr, ptr %45, align 8, !tbaa !44
  %51 = call i32 @lv_obj_send_event(ptr noundef %50, i32 noundef 49, ptr noundef nonnull %3) #13
  %52 = getelementptr inbounds nuw i8, ptr %0, i64 96
  call void @lv_memset(ptr noundef nonnull %52, i8 noundef zeroext 0, i64 noundef 512) #13
  %53 = getelementptr inbounds nuw i8, ptr %0, i64 608
  call void @lv_memset(ptr noundef nonnull %53, i8 noundef zeroext 0, i64 noundef 32) #13
  %54 = getelementptr inbounds nuw i8, ptr %0, i64 640
  store i32 0, ptr %54, align 8, !tbaa !62
  %55 = load ptr, ptr %11, align 8, !tbaa !47
  call void @lv_obj_invalidate(ptr noundef %55) #13
  call void @lv_obj_tree_walk(ptr noundef null, ptr noundef nonnull @invalidate_layout_cb, ptr noundef null) #13
  call void @llvm.lifetime.start.p0(i64 56, ptr nonnull %2) #13
  call void @lv_memset(ptr noundef nonnull %2, i8 noundef zeroext 0, i64 noundef 56) #13
  %56 = getelementptr inbounds nuw i8, ptr %2, i64 16
  store i32 54, ptr %56, align 8, !tbaa !48
  store ptr %0, ptr %2, align 8, !tbaa !50
  %57 = getelementptr inbounds nuw i8, ptr %2, i64 8
  store ptr %0, ptr %57, align 8, !tbaa !51
  %58 = getelementptr inbounds nuw i8, ptr %2, i64 32
  store ptr null, ptr %58, align 8, !tbaa !52
  %59 = getelementptr inbounds nuw i8, ptr %0, i64 856
  %60 = call i32 @lv_event_send(ptr noundef nonnull %59, ptr noundef nonnull %2, i1 noundef zeroext true) #13
  %.not.i = icmp eq i32 %60, 1
  br i1 %.not.i, label %61, label %lv_display_send_event.exit

61:                                               ; preds = %._crit_edge
  %62 = call i32 @lv_event_send(ptr noundef nonnull %59, ptr noundef nonnull %2, i1 noundef zeroext false) #13
  br label %lv_display_send_event.exit

lv_display_send_event.exit:                       ; preds = %._crit_edge, %61
  call void @llvm.lifetime.end.p0(i64 56, ptr nonnull %2) #13
  call void @llvm.lifetime.end.p0(i64 16, ptr nonnull %3) #13
  ret void
}